; Function Attrs: mustprogress nofree nounwind willreturn memory(argmem: readwrite) uwtable
define dso_local noundef zeroext i1 @_ZN5clang23DependencyFileGenerator13sawDependencyEN4llvm9StringRefEbbbb(ptr nocapture noundef nonnull align 8 dereferenceable(128) %0, ptr nocapture readonly %1, i64 %2, i1 zeroext %3, i1 noundef zeroext %4, i1 noundef zeroext %5, i1 noundef zeroext %6) unnamed_addr #5 align 2 {
  br i1 %6, label %8, label %14

8:                                                ; preds = %7
  %9 = getelementptr inbounds nuw i8, ptr %0, i64 114
  %10 = load i8, ptr %9, align 2
  %11 = trunc i8 %10 to i1
  br i1 %11, label %25, label %12

12:                                               ; preds = %8
  %13 = getelementptr inbounds nuw i8, ptr %0, i64 115
  store i8 1, ptr %13, align 1
  br label %25

14:                                               ; preds = %7
  br i1 %5, label %15, label %19

15:                                               ; preds = %14
  %16 = getelementptr inbounds nuw i8, ptr %0, i64 116
  %17 = load i8, ptr %16, align 4
  %18 = trunc i8 %17 to i1
  br i1 %18, label %19, label %25

19:                                               ; preds = %15, %14
  %.not.i.i = icmp eq i64 %2, 10
  br i1 %.not.i.i, label %_ZL17isSpecialFilenameN4llvm9StringRefE.exit, label %_ZL17isSpecialFilenameN4llvm9StringRefE.exit.thread

_ZL17isSpecialFilenameN4llvm9StringRefE.exit:     ; preds = %19
  %bcmp.i.i = tail call i32 @bcmp(ptr noundef nonnull readonly dereferenceable(10) %1, ptr noundef nonnull dereferenceable(10) @.str.4, i64 10)
  %20 = icmp eq i32 %bcmp.i.i, 0
  br i1 %20, label %25, label %_ZL17isSpecialFilenameN4llvm9StringRefE.exit.thread

_ZL17isSpecialFilenameN4llvm9StringRefE.exit.thread: ; preds = %19, %_ZL17isSpecialFilenameN4llvm9StringRefE.exit
  %21 = getelementptr inbounds nuw i8, ptr %0, i64 112
  %22 = load i8, ptr %21, align 8
  %23 = trunc i8 %22 to i1
  %24 = xor i1 %4, true
  %spec.select = or i1 %24, %23
  br label %25

25:                                               ; preds = %_ZL17isSpecialFilenameN4llvm9StringRefE.exit.thread, %_ZL17isSpecialFilenameN4llvm9StringRefE.exit, %15, %8, %12
  %.0 = phi i1 [ false, %12 ], [ true, %8 ], [ false, %15 ], [ false, %_ZL17isSpecialFilenameN4llvm9StringRefE.exit ], [ %spec.select, %_ZL17isSpecialFilenameN4llvm9StringRefE.exit.thread ]
  ret i1 %.0
}